; Function Attrs: nounwind uwtable
define noalias noundef ptr @Nm_ManReturnNameIds(ptr noundef readonly captures(none) %0) local_unnamed_addr #0 {
  %2 = getelementptr inbounds nuw i8, ptr %0, i64 20
  %3 = load i32, ptr %2, align 4, !tbaa !19
  %4 = tail call noalias dereferenceable_or_null(16) ptr @malloc(i64 noundef 16) #12
  %5 = add i32 %3, -1
  %or.cond.i = icmp ult i32 %5, 15
  %spec.store.select.i = select i1 %or.cond.i, i32 16, i32 %3
  %6 = getelementptr inbounds nuw i8, ptr %4, i64 4
  store i32 0, ptr %6, align 4, !tbaa !25
  store i32 %spec.store.select.i, ptr %4, align 8, !tbaa !28
  %.not.i = icmp eq i32 %spec.store.select.i, 0
  br i1 %.not.i, label %Vec_IntAlloc.exit, label %7

7:                                                ; preds = %1
  %8 = sext i32 %spec.store.select.i to i64
  %9 = shl nsw i64 %8, 2
  %10 = tail call noalias ptr @malloc(i64 noundef %9) #12
  br label %Vec_IntAlloc.exit

Vec_IntAlloc.exit:                                ; preds = %1, %7
  %11 = phi ptr [ %10, %7 ], [ null, %1 ]
  %12 = getelementptr inbounds nuw i8, ptr %4, i64 8
  store ptr %11, ptr %12, align 8, !tbaa !29
  %13 = getelementptr inbounds nuw i8, ptr %0, i64 16
  %14 = load i32, ptr %13, align 8, !tbaa !15
  %15 = icmp sgt i32 %14, 0
  br i1 %15, label %.lr.ph, label %._crit_edge

.lr.ph:                                           ; preds = %Vec_IntAlloc.exit, %45
  %16 = phi i32 [ %46, %45 ], [ %14, %Vec_IntAlloc.exit ]
  %17 = phi ptr [ %.pre.i13, %45 ], [ %11, %Vec_IntAlloc.exit ]
  %indvars.iv = phi i64 [ %indvars.iv.next, %45 ], [ 0, %Vec_IntAlloc.exit ]
  %18 = load ptr, ptr %0, align 8, !tbaa !16
  %19 = getelementptr inbounds nuw ptr, ptr %18, i64 %indvars.iv
  %20 = load ptr, ptr %19, align 8, !tbaa !30
  %.not = icmp eq ptr %20, null
  br i1 %.not, label %45, label %21

21:                                               ; preds = %.lr.ph
  %22 = getelementptr inbounds nuw i8, ptr %20, i64 4
  %23 = load i32, ptr %22, align 4, !tbaa !20
  %24 = load i32, ptr %6, align 4, !tbaa !25
  %25 = load i32, ptr %4, align 8, !tbaa !28
  %26 = icmp eq i32 %24, %25
  br i1 %26, label %27, label %Vec_IntPush.exit

27:                                               ; preds = %21
  %28 = icmp slt i32 %24, 16
  br i1 %28, label %29, label %34

29:                                               ; preds = %27
  %.not9.i.i = icmp eq ptr %17, null
  br i1 %.not9.i.i, label %32, label %30

30:                                               ; preds = %29
  %31 = tail call dereferenceable_or_null(64) ptr @realloc(ptr noundef nonnull %17, i64 noundef 64) #13
  br label %Vec_IntPush.exit.sink.split

32:                                               ; preds = %29
  %33 = tail call noalias dereferenceable_or_null(64) ptr @malloc(i64 noundef 64) #12
  br label %Vec_IntPush.exit.sink.split

34:                                               ; preds = %27
  %35 = shl nuw nsw i32 %24, 1
  %.not9.i9.i = icmp eq ptr %17, null
  %36 = zext nneg i32 %35 to i64
  %37 = shl nuw nsw i64 %36, 2
  br i1 %.not9.i9.i, label %40, label %38

38:                                               ; preds = %34
  %39 = tail call ptr @realloc(ptr noundef nonnull %17, i64 noundef %37) #13
  br label %Vec_IntPush.exit.sink.split

40:                                               ; preds = %34
  %41 = tail call noalias ptr @malloc(i64 noundef %37) #12
  br label %Vec_IntPush.exit.sink.split

Vec_IntPush.exit.sink.split:                      ; preds = %38, %40, %30, %32
  %.sink15 = phi ptr [ %31, %30 ], [ %33, %32 ], [ %39, %38 ], [ %41, %40 ]
  %.sink = phi i32 [ 16, %30 ], [ 16, %32 ], [ %35, %38 ], [ %35, %40 ]
  store ptr %.sink15, ptr %12, align 8, !tbaa !29
  store i32 %.sink, ptr %4, align 8, !tbaa !28
  br label %Vec_IntPush.exit

Vec_IntPush.exit:                                 ; preds = %Vec_IntPush.exit.sink.split, %21
  %.pre.i14 = phi ptr [ %17, %21 ], [ %.sink15, %Vec_IntPush.exit.sink.split ]
  %42 = add nsw i32 %24, 1
  store i32 %42, ptr %6, align 4, !tbaa !25
  %43 = sext i32 %24 to i64
  %44 = getelementptr inbounds i32, ptr %.pre.i14, i64 %43
  store i32 %23, ptr %44, align 4, !tbaa !31
  %.pre = load i32, ptr %13, align 8, !tbaa !15
  br label %45

45:                                               ; preds = %.lr.ph, %Vec_IntPush.exit
  %46 = phi i32 [ %16, %.lr.ph ], [ %.pre, %Vec_IntPush.exit ]
  %.pre.i13 = phi ptr [ %17, %.lr.ph ], [ %.pre.i14, %Vec_IntPush.exit ]
  %indvars.iv.next = add nuw nsw i64 %indvars.iv, 1
  %47 = sext i32 %46 to i64
  %48 = icmp slt i64 %indvars.iv.next, %47
  br i1 %48, label %.lr.ph, label %._crit_edge, !llvm.loop !32

._crit_edge:                                      ; preds = %45, %Vec_IntAlloc.exit
  ret ptr %4
}